target datalayout = "e-m:e-p270:32:32-p271:32:32-p272:64:64-i64:64-i128:128-f80:128-n8:16:32:64-S128"
target triple = "x86_64-pc-linux-gnu"

%class.QString = type { %struct.QArrayDataPointer }
%struct.QArrayDataPointer = type { ptr, ptr, i64 }
%class.FunnelTextDialog = type { %class.GeometryStateDialog, ptr, %struct._funnel_text_window_t, ptr, ptr }
%class.GeometryStateDialog = type { %class.QDialog, %class.QString }
%class.QDialog = type { %class.QWidget }
%class.QWidget = type { %class.QObject, %class.QPaintDevice.base, ptr }
%class.QObject = type { ptr, %class.QScopedPointer }
%class.QScopedPointer = type { ptr }
%class.QPaintDevice.base = type <{ ptr, i16 }>
%struct._funnel_text_window_t = type { ptr }
%class.Ui_FunnelTextDialog = type { ptr, ptr, ptr, ptr, ptr, ptr }

; Function Attrs: mustprogress uwtable
define void @_ZN16FunnelTextDialog15setTextEditableEi(ptr noundef nonnull align 8 dereferenceable(96) %0, i32 noundef %1) #3 align 2 {
  %3 = alloca ptr, align 8
  %4 = alloca i32, align 4
  store ptr %0, ptr %3, align 8
  store i32 %1, ptr %4, align 4
  %5 = load ptr, ptr %3, align 8
  %6 = getelementptr inbounds %class.FunnelTextDialog, ptr %5, i32 0, i32 1
  %7 = load ptr, ptr %6, align 8
  %8 = getelementptr inbounds %class.Ui_FunnelTextDialog, ptr %7, i32 0, i32 1
  %9 = load ptr, ptr %8, align 8
  %10 = load i32, ptr %4, align 4
  %11 = icmp ne i32 %10, 0
  %12 = xor i1 %11, true
  call void @_ZN9QTextEdit11setReadOnlyEb(ptr noundef nonnull align 8 dereferenceable(40) %9, i1 noundef zeroext %12)
  ret void
}