; Function Attrs: mustprogress uwtable
define void @_ZN16FunnelTextDialog15setTextEditableEi(ptr nocapture noundef nonnull readonly align 8 dereferenceable(96) %0, i32 noundef %1) local_unnamed_addr #2 align 2 {
  %3 = getelementptr inbounds i8, ptr %0, i64 64
  %4 = load ptr, ptr %3, align 8
  %5 = getelementptr inbounds i8, ptr %4, i64 8
  %6 = load ptr, ptr %5, align 8
  %.not = icmp eq i32 %1, 0
  tail call void @_ZN9QTextEdit11setReadOnlyEb(ptr noundef nonnull align 8 dereferenceable(40) %6, i1 noundef zeroext %.not)
  ret void
}